target datalayout = "e-m:e-p270:32:32-p271:32:32-p272:64:64-i64:64-i128:128-f80:128-n8:16:32:64-S128"
target triple = "x86_64-pc-linux-gnu"

@.str.94 = private unnamed_addr constant [15 x i8] c"dt-preset-name\00", align 1

; Function Attrs: nounwind uwtable
define internal void @_menuitem_activate_preset(ptr noundef %0, ptr noundef %1) #0 {
  %3 = alloca ptr, align 8
  %4 = alloca ptr, align 8
  %5 = alloca ptr, align 8
  store ptr %0, ptr %3, align 8, !tbaa !191
  store ptr %1, ptr %4, align 8, !tbaa !83
  call void @llvm.lifetime.start.p0(i64 8, ptr %5) #11
  %6 = call ptr @gtk_get_current_event()
  store ptr %6, ptr %5, align 8, !tbaa !219
  %7 = load ptr, ptr %5, align 8, !tbaa !219
  %8 = load i32, ptr %7, align 8, !tbaa !20
  %9 = icmp eq i32 %8, 8
  br i1 %9, label %10, label %15

10:                                               ; preds = %2
  %11 = load ptr, ptr %3, align 8, !tbaa !191
  %12 = call ptr @g_type_check_instance_cast(ptr noundef %11, i64 noundef 80)
  %13 = call ptr @g_object_get_data(ptr noundef %12, ptr noundef @.str.94)
  %14 = load ptr, ptr %4, align 8, !tbaa !83
  call void @dt_gui_presets_apply_preset(ptr noundef %13, ptr noundef %14)
  br label %15

15:                                               ; preds = %10, %2
  %16 = load ptr, ptr %5, align 8, !tbaa !219
  call void @gdk_event_free(ptr noundef %16)
  call void @llvm.lifetime.end.p0(i64 8, ptr %5) #11
  ret void
}