; Function Attrs: nounwind uwtable
define internal void @_menuitem_activate_preset(ptr noundef %0, ptr noundef %1) #0 {
  %3 = tail call ptr @gtk_get_current_event() #16
  %4 = load i32, ptr %3, align 8, !tbaa !11
  %5 = icmp eq i32 %4, 8
  br i1 %5, label %6, label %9

6:                                                ; preds = %2
  %7 = tail call ptr @g_type_check_instance_cast(ptr noundef %0, i64 noundef 80) #16
  %8 = tail call ptr @g_object_get_data(ptr noundef %7, ptr noundef nonnull @.str.94) #16
  tail call void @dt_gui_presets_apply_preset(ptr noundef %8, ptr noundef %1)
  br label %9

9:                                                ; preds = %6, %2
  tail call void @gdk_event_free(ptr noundef nonnull %3) #16
  ret void
}